; Function Attrs: mustprogress nounwind uwtable
define void @_ZN32pxrInternal_v0_24__pxrReserved__12Sdf_Identity19_UnregisterOrDeleteEPNS_18Sdf_IdRegistryImplEPS0_(ptr noundef %0, ptr noundef %1) local_unnamed_addr #2 align 2 personality ptr @__gxx_personality_v0 {
  %.not = icmp eq ptr %0, null
  br i1 %.not, label %4, label %3

3:                                                ; preds = %2
  invoke void @_ZN32pxrInternal_v0_24__pxrReserved__18Sdf_IdRegistryImpl18UnregisterOrDeleteEv(ptr noundef nonnull align 8 dereferenceable(113) %0)
          to label %26 unwind label %27

4:                                                ; preds = %2
  %5 = icmp eq ptr %1, null
  br i1 %5, label %26, label %6

6:                                                ; preds = %4
  %7 = getelementptr inbounds nuw i8, ptr %1, i64 4
  %8 = load i32, ptr %7, align 4
  %.not.i.i.i = icmp eq i32 %8, 0
  br i1 %.not.i.i.i, label %_ZN32pxrInternal_v0_24__pxrReserved__12Sdf_IdentityD2Ev.exit, label %9

9:                                                ; preds = %6
  %10 = and i32 %8, 255
  %11 = lshr i32 %8, 8
  %12 = zext nneg i32 %10 to i64
  %13 = getelementptr inbounds [257 x ptr], ptr @_ZN32pxrInternal_v0_24__pxrReserved__8Sdf_PoolINS_15Sdf_PathPrimTagELj24ELj8ELj16384EE13_regionStartsE, i64 0, i64 %12
  %14 = load ptr, ptr %13, align 8
  %15 = mul nuw nsw i32 %11, 24
  %16 = zext nneg i32 %15 to i64
  %17 = getelementptr inbounds i8, ptr %14, i64 %16
  %18 = getelementptr inbounds nuw i8, ptr %17, i64 8
  %19 = atomicrmw sub ptr %18, i32 1 seq_cst, align 4
  %20 = and i32 %19, 2147483647
  %21 = icmp eq i32 %20, 1
  br i1 %21, label %22, label %_ZN32pxrInternal_v0_24__pxrReserved__12Sdf_IdentityD2Ev.exit

22:                                               ; preds = %9
  invoke void @_ZNK32pxrInternal_v0_24__pxrReserved__12Sdf_PathNode8_DestroyEv(ptr noundef nonnull align 8 dereferenceable(16) %17)
          to label %_ZN32pxrInternal_v0_24__pxrReserved__12Sdf_IdentityD2Ev.exit unwind label %23

23:                                               ; preds = %22
  %24 = landingpad { ptr, i32 }
          catch ptr null
  %25 = extractvalue { ptr, i32 } %24, 0
  tail call void @__clang_call_terminate(ptr %25) #17
  unreachable

_ZN32pxrInternal_v0_24__pxrReserved__12Sdf_IdentityD2Ev.exit: ; preds = %6, %9, %22
  tail call void @_ZdlPvm(ptr noundef nonnull %1, i64 noundef 24) #18
  br label %26

26:                                               ; preds = %4, %_ZN32pxrInternal_v0_24__pxrReserved__12Sdf_IdentityD2Ev.exit, %3
  ret void

27:                                               ; preds = %3
  %28 = landingpad { ptr, i32 }
          catch ptr null
  %29 = extractvalue { ptr, i32 } %28, 0
  tail call void @__clang_call_terminate(ptr %29) #17
  unreachable
}